; Function Attrs: mustprogress uwtable
define hidden void @_ZN4cvc58internal6theory11TheoryStateC2ERNS0_3EnvENS1_9ValuationE(ptr noundef nonnull align 8 dereferenceable(160) %0, ptr noundef nonnull align 8 dereferenceable(696) %1, ptr %2) unnamed_addr #3 align 2 personality ptr @__gxx_personality_v0 {
.noexc:
  tail call void @_ZN4cvc58internal6EnvObjC2ERNS0_3EnvE(ptr noundef nonnull align 8 dereferenceable(16) %0, ptr noundef nonnull align 8 dereferenceable(696) %1)
  store ptr getelementptr inbounds nuw inrange(-16, 96) (i8, ptr @_ZTVN4cvc58internal6theory11TheoryStateE, i64 16), ptr %0, align 8, !tbaa !3
  %3 = getelementptr inbounds nuw i8, ptr %0, i64 16
  store ptr %2, ptr %3, align 8, !tbaa !6
  %4 = getelementptr inbounds nuw i8, ptr %0, i64 24
  store ptr null, ptr %4, align 8, !tbaa !10
  %5 = getelementptr inbounds nuw i8, ptr %0, i64 32
  %6 = tail call noundef ptr @_ZNK4cvc58internal6EnvObj7contextEv(ptr noundef nonnull align 8 dereferenceable(16) %0)
  tail call void @_ZN4cvc57context10ContextObjC2EPNS0_7ContextE(ptr noundef nonnull align 8 dereferenceable(41) %5, ptr noundef %6)
  store ptr getelementptr inbounds nuw inrange(-16, 32) (i8, ptr @_ZTVN4cvc57context3CDOIbEE, i64 16), ptr %5, align 8, !tbaa !3
  %7 = getelementptr inbounds nuw i8, ptr %0, i64 72
  store i8 0, ptr %7, align 8, !tbaa !30
  %8 = getelementptr inbounds nuw i8, ptr %0, i64 40
  %9 = load ptr, ptr %8, align 8, !tbaa !31
  %10 = load ptr, ptr %9, align 8, !tbaa !32
  %11 = getelementptr inbounds nuw i8, ptr %10, i64 16
  %12 = load ptr, ptr %11, align 8, !tbaa !41
  %13 = getelementptr inbounds i8, ptr %12, i64 -8
  %14 = load ptr, ptr %13, align 8, !tbaa !43
  %15 = icmp eq ptr %9, %14
  br i1 %15, label %17, label %16

16:                                               ; preds = %.noexc
  tail call void @_ZN4cvc57context10ContextObj6updateEv(ptr noundef nonnull align 8 dereferenceable(41) %5)
  br label %17

17:                                               ; preds = %16, %.noexc
  store i8 0, ptr %7, align 8, !tbaa !30
  %18 = invoke noundef ptr @_ZNK4cvc58internal6EnvObj7contextEv(ptr noundef nonnull align 8 dereferenceable(16) %0)
          to label %19 unwind label %24

19:                                               ; preds = %17
  %20 = getelementptr inbounds nuw i8, ptr %0, i64 80
  invoke void @_ZN4cvc57context10ContextObjC2EPNS0_7ContextE(ptr noundef nonnull align 8 dereferenceable(74) %20, ptr noundef %18)
          to label %21 unwind label %26

21:                                               ; preds = %19
  store ptr getelementptr inbounds nuw inrange(-16, 32) (i8, ptr @_ZTVN4cvc57context6CDListINS_8internal12NodeTemplateILb0EEENS0_14DefaultCleanUpIS4_EESaIS4_EEE, i64 16), ptr %20, align 8, !tbaa !3
  %22 = getelementptr inbounds nuw i8, ptr %0, i64 120
  %23 = getelementptr inbounds nuw i8, ptr %0, i64 152
  tail call void @llvm.memset.p0.i64(ptr noundef nonnull align 8 dereferenceable(32) %22, i8 0, i64 32, i1 false)
  store i8 1, ptr %23, align 8, !tbaa !44
  ret void

24:                                               ; preds = %17
  %25 = landingpad { ptr, i32 }
          cleanup
  br label %28

26:                                               ; preds = %19
  %27 = landingpad { ptr, i32 }
          cleanup
  br label %28

28:                                               ; preds = %26, %24
  %.pn = phi { ptr, i32 } [ %27, %26 ], [ %25, %24 ]
  tail call void @_ZN4cvc57context3CDOIbED2Ev(ptr noundef nonnull align 8 dereferenceable(41) %5) #22
  resume { ptr, i32 } %.pn
}